target datalayout = "e-m:e-p270:32:32-p271:32:32-p272:64:64-i64:64-i128:128-f80:128-n8:16:32:64-S128"
target triple = "x86_64-pc-linux-gnu"

; Function Attrs: nounwind uwtable
define dso_local ptr @ziplistNew() #0 {
  %1 = alloca i32, align 4
  %2 = alloca ptr, align 8
  call void @llvm.lifetime.start.p0(i64 4, ptr %1) #11
  store i32 11, ptr %1, align 4, !tbaa !12
  call void @llvm.lifetime.start.p0(i64 8, ptr %2) #11
  %3 = load i32, ptr %1, align 4, !tbaa !12
  %4 = zext i32 %3 to i64
  %5 = call noalias ptr @zmalloc(i64 noundef %4) #13
  store ptr %5, ptr %2, align 8, !tbaa !5
  %6 = load i32, ptr %1, align 4, !tbaa !12
  %7 = load ptr, ptr %2, align 8, !tbaa !5
  store i32 %6, ptr %7, align 4, !tbaa !12
  %8 = load ptr, ptr %2, align 8, !tbaa !5
  %9 = getelementptr inbounds nuw i8, ptr %8, i64 4
  store i32 10, ptr %9, align 4, !tbaa !12
  %10 = load ptr, ptr %2, align 8, !tbaa !5
  %11 = getelementptr inbounds nuw i8, ptr %10, i64 8
  store i16 0, ptr %11, align 2, !tbaa !19
  %12 = load ptr, ptr %2, align 8, !tbaa !5
  %13 = load i32, ptr %1, align 4, !tbaa !12
  %14 = sub i32 %13, 1
  %15 = zext i32 %14 to i64
  %16 = getelementptr inbounds nuw i8, ptr %12, i64 %15
  store i8 -1, ptr %16, align 1, !tbaa !14
  %17 = load ptr, ptr %2, align 8, !tbaa !5
  call void @llvm.lifetime.end.p0(i64 8, ptr %2) #11
  call void @llvm.lifetime.end.p0(i64 4, ptr %1) #11
  ret ptr %17
}