; Function Attrs: nounwind uwtable
define dso_local noalias noundef ptr @ziplistNew() local_unnamed_addr #5 {
  %1 = tail call noalias dereferenceable_or_null(11) ptr @zmalloc(i64 noundef 11) #19
  store i32 11, ptr %1, align 4, !tbaa !5
  %2 = getelementptr inbounds nuw i8, ptr %1, i64 4
  store i32 10, ptr %2, align 4, !tbaa !5
  %3 = getelementptr inbounds nuw i8, ptr %1, i64 8
  store i16 0, ptr %3, align 2, !tbaa !12
  %4 = getelementptr inbounds nuw i8, ptr %1, i64 10
  store i8 -1, ptr %4, align 1, !tbaa !9
  ret ptr %1
}